; ModuleID = 'source-C-CXX/2/3111.c'
source_filename = "source-C-CXX/2/3111.c"
target datalayout = "e-m:e-p270:32:32-p271:32:32-p272:64:64-i64:64-f80:128-n8:16:32:64-S128"
target triple = "x86_64-pc-linux-gnu"

@.str = private unnamed_addr constant [5 x i8] c"%d%d\00", align 1
@.str.1 = private unnamed_addr constant [3 x i8] c"%d\00", align 1
@.str.2 = private unnamed_addr constant [4 x i8] c"yes\00", align 1
@.str.3 = private unnamed_addr constant [3 x i8] c"no\00", align 1

; Function Attrs: nofree nounwind sspstrong uwtable
define dso_local void @main() local_unnamed_addr #0 {
  %1 = alloca i32, align 4
  %2 = alloca i32, align 4
  %3 = bitcast i32* %1 to i8*
  call void @llvm.lifetime.start.p0i8(i64 4, i8* nonnull %3) #4
  %4 = bitcast i32* %2 to i8*
  call void @llvm.lifetime.start.p0i8(i64 4, i8* nonnull %4) #4
  %5 = call i32 (i8*, ...) @__isoc99_scanf(i8* getelementptr inbounds ([5 x i8], [5 x i8]* @.str, i64 0, i64 0), i32* nonnull %1, i32* nonnull %2)
  %6 = load i32, i32* %1, align 4, !tbaa !5
  %7 = sext i32 %6 to i64
  %8 = shl nsw i64 %7, 2
  %9 = call noalias align 16 i8* @malloc(i64 %8) #4
  %10 = bitcast i8* %9 to i32*
  %11 = icmp sgt i32 %6, 0
  br i1 %11, label %20, label %48

12:                                               ; preds = %20
  %13 = load i32, i32* %2, align 4
  %14 = icmp sgt i32 %25, 1
  br i1 %14, label %15, label %48

15:                                               ; preds = %12
  %16 = zext i32 %25 to i64
  %17 = add nsw i32 %25, -1
  %18 = zext i32 %17 to i64
  %19 = zext i32 %25 to i64
  br label %31

20:                                               ; preds = %0, %20
  %21 = phi i64 [ %24, %20 ], [ 0, %0 ]
  %22 = getelementptr inbounds i32, i32* %10, i64 %21
  %23 = call i32 (i8*, ...) @__isoc99_scanf(i8* getelementptr inbounds ([3 x i8], [3 x i8]* @.str.1, i64 0, i64 0), i32* %22)
  %24 = add nuw nsw i64 %21, 1
  %25 = load i32, i32* %1, align 4, !tbaa !5
  %26 = sext i32 %25 to i64
  %27 = icmp slt i64 %24, %26
  br i1 %27, label %20, label %12, !llvm.loop !9

28:                                               ; preds = %39, %31
  %29 = add nuw nsw i64 %33, 1
  %30 = icmp eq i64 %34, %18
  br i1 %30, label %48, label %31, !llvm.loop !11

31:                                               ; preds = %15, %28
  %32 = phi i64 [ 0, %15 ], [ %34, %28 ]
  %33 = phi i64 [ 1, %15 ], [ %29, %28 ]
  %34 = add nuw nsw i64 %32, 1
  %35 = icmp ult i64 %34, %16
  br i1 %35, label %36, label %28

36:                                               ; preds = %31
  %37 = getelementptr inbounds i32, i32* %10, i64 %32
  %38 = load i32, i32* %37, align 4, !tbaa !5
  br label %41

39:                                               ; preds = %41
  %40 = icmp eq i64 %47, %19
  br i1 %40, label %28, label %41, !llvm.loop !12

41:                                               ; preds = %36, %39
  %42 = phi i64 [ %33, %36 ], [ %47, %39 ]
  %43 = getelementptr inbounds i32, i32* %10, i64 %42
  %44 = load i32, i32* %43, align 4, !tbaa !5
  %45 = add nsw i32 %44, %38
  %46 = icmp eq i32 %45, %13
  %47 = add nuw nsw i64 %42, 1
  br i1 %46, label %48, label %39

48:                                               ; preds = %28, %41, %12, %0
  %49 = phi i8* [ getelementptr inbounds ([3 x i8], [3 x i8]* @.str.3, i64 0, i64 0), %0 ], [ getelementptr inbounds ([3 x i8], [3 x i8]* @.str.3, i64 0, i64 0), %12 ], [ getelementptr inbounds ([4 x i8], [4 x i8]* @.str.2, i64 0, i64 0), %41 ], [ getelementptr inbounds ([3 x i8], [3 x i8]* @.str.3, i64 0, i64 0), %28 ]
  %50 = call i32 (i8*, ...) @printf(i8* nonnull dereferenceable(1) %49)
  call void @llvm.lifetime.end.p0i8(i64 4, i8* nonnull %4) #4
  call void @llvm.lifetime.end.p0i8(i64 4, i8* nonnull %3) #4
  ret void
}

; Function Attrs: argmemonly mustprogress nofree nosync nounwind willreturn
declare void @llvm.lifetime.start.p0i8(i64 immarg, i8* nocapture) #1

; Function Attrs: nofree nounwind
declare noundef i32 @__isoc99_scanf(i8* nocapture noundef readonly, ...) local_unnamed_addr #2

; Function Attrs: inaccessiblememonly mustprogress nofree nounwind willreturn
declare noalias noundef align 16 i8* @malloc(i64 noundef) local_unnamed_addr #3

; Function Attrs: nofree nounwind
declare noundef i32 @printf(i8* nocapture noundef readonly, ...) local_unnamed_addr #2

; Function Attrs: argmemonly mustprogress nofree nosync nounwind willreturn
declare void @llvm.lifetime.end.p0i8(i64 immarg, i8* nocapture) #1


!llvm.module.flags = !{!0, !1, !2, !3}
!llvm.ident = !{!4}

!0 = !{i32 1, !"wchar_size", i32 4}
!1 = !{i32 7, !"PIC Level", i32 2}
!2 = !{i32 7, !"PIE Level", i32 2}
!3 = !{i32 7, !"uwtable", i32 1}
!4 = !{!"clang version 13.0.0"}
!5 = !{!6, !6, i64 0}
!6 = !{!"int", !7, i64 0}
!7 = !{!"omnipotent char", !8, i64 0}
!8 = !{!"Simple C/C++ TBAA"}
!9 = distinct !{!9, !10}
!10 = !{!"llvm.loop.mustprogress"}
!11 = distinct !{!11, !10}
!12 = distinct !{!12, !10}
